; Function Attrs: nofree norecurse nosync nounwind memory(argmem: readwrite) uwtable
define i64 @H5VM_chunk_index_scaled(i32 noundef %0, ptr nocapture noundef readonly %1, ptr nocapture noundef readonly %2, ptr nocapture noundef readonly %3, ptr nocapture noundef %4) local_unnamed_addr #5 {
  %.not = icmp eq i32 %0, 0
  br i1 %.not, label %H5VM_array_offset_pre.exit, label %.lr.ph.preheader

.lr.ph.preheader:                                 ; preds = %5
  %wide.trip.count = zext i32 %0 to i64
  br label %.lr.ph

.lr.ph:                                           ; preds = %.lr.ph.preheader, %.lr.ph
  %indvars.iv = phi i64 [ 0, %.lr.ph.preheader ], [ %indvars.iv.next, %.lr.ph ]
  %6 = getelementptr inbounds i64, ptr %1, i64 %indvars.iv
  %7 = load i64, ptr %6, align 8
  %8 = getelementptr inbounds i32, ptr %2, i64 %indvars.iv
  %9 = load i32, ptr %8, align 4
  %10 = zext i32 %9 to i64
  %11 = udiv i64 %7, %10
  %12 = getelementptr inbounds i64, ptr %4, i64 %indvars.iv
  store i64 %11, ptr %12, align 8
  %indvars.iv.next = add nuw nsw i64 %indvars.iv, 1
  %exitcond.not = icmp eq i64 %indvars.iv.next, %wide.trip.count
  br i1 %exitcond.not, label %._crit_edge, label %.lr.ph

._crit_edge:                                      ; preds = %.lr.ph
  br i1 %.not, label %H5VM_array_offset_pre.exit, label %.lr.ph.preheader.i

.lr.ph.preheader.i:                               ; preds = %._crit_edge
  %wide.trip.count.i = zext i32 %0 to i64
  br label %.lr.ph.i

.lr.ph.i:                                         ; preds = %.lr.ph.i, %.lr.ph.preheader.i
  %indvars.iv.i = phi i64 [ 0, %.lr.ph.preheader.i ], [ %indvars.iv.next.i, %.lr.ph.i ]
  %.010.i = phi i64 [ 0, %.lr.ph.preheader.i ], [ %18, %.lr.ph.i ]
  %13 = getelementptr inbounds i64, ptr %3, i64 %indvars.iv.i
  %14 = load i64, ptr %13, align 8
  %15 = getelementptr inbounds i64, ptr %4, i64 %indvars.iv.i
  %16 = load i64, ptr %15, align 8
  %17 = mul i64 %16, %14
  %18 = add i64 %17, %.010.i
  %indvars.iv.next.i = add nuw nsw i64 %indvars.iv.i, 1
  %exitcond.not.i = icmp eq i64 %indvars.iv.next.i, %wide.trip.count.i
  br i1 %exitcond.not.i, label %H5VM_array_offset_pre.exit, label %.lr.ph.i

H5VM_array_offset_pre.exit:                       ; preds = %.lr.ph.i, %5, %._crit_edge
  %.0.lcssa.i = phi i64 [ 0, %._crit_edge ], [ 0, %5 ], [ %18, %.lr.ph.i ]
  ret i64 %.0.lcssa.i
}